; ModuleID = '20/367.c'
source_filename = "20/367.c"
target datalayout = "e-m:e-p270:32:32-p271:32:32-p272:64:64-i64:64-f80:128-n8:16:32:64-S128"
target triple = "x86_64-pc-linux-gnu"

@.str = private unnamed_addr constant [5 x i8] c"%s%s\00", align 1
@.str.1 = private unnamed_addr constant [4 x i8] c"%s\0A\00", align 1

; Function Attrs: noinline nounwind uwtable
define dso_local void @main() #0 {
  %1 = alloca [10 x i8], align 1
  %2 = alloca [13 x i8], align 1
  %3 = alloca [3 x i8], align 1
  %4 = alloca i8, align 1
  %5 = alloca i8, align 1
  %6 = alloca i32, align 4
  %7 = alloca i32, align 4
  br label %8

8:                                                ; preds = %104, %0
  %9 = getelementptr inbounds [10 x i8], [10 x i8]* %1, i64 0, i64 0
  %10 = getelementptr inbounds [3 x i8], [3 x i8]* %3, i64 0, i64 0
  %11 = call i32 (i8*, ...) @__isoc99_scanf(i8* getelementptr inbounds ([5 x i8], [5 x i8]* @.str, i64 0, i64 0), i8* %9, i8* %10)
  %12 = icmp ne i32 %11, -1
  br i1 %12, label %13, label %111

13:                                               ; preds = %8
  %14 = getelementptr inbounds [10 x i8], [10 x i8]* %1, i64 0, i64 0
  %15 = call i64 @strlen(i8* %14) #3
  %16 = trunc i64 %15 to i32
  store i32 %16, i32* %7, align 4
  store i8 0, i8* %4, align 1
  store i32 0, i32* %6, align 4
  br label %17

17:                                               ; preds = %38, %13
  %18 = load i32, i32* %6, align 4
  %19 = load i32, i32* %7, align 4
  %20 = icmp slt i32 %18, %19
  br i1 %20, label %21, label %41

21:                                               ; preds = %17
  %22 = load i32, i32* %6, align 4
  %23 = sext i32 %22 to i64
  %24 = getelementptr inbounds [10 x i8], [10 x i8]* %1, i64 0, i64 %23
  %25 = load i8, i8* %24, align 1
  %26 = sext i8 %25 to i32
  %27 = load i8, i8* %4, align 1
  %28 = sext i8 %27 to i32
  %29 = icmp sgt i32 %26, %28
  br i1 %29, label %30, label %37

30:                                               ; preds = %21
  %31 = load i32, i32* %6, align 4
  %32 = sext i32 %31 to i64
  %33 = getelementptr inbounds [10 x i8], [10 x i8]* %1, i64 0, i64 %32
  %34 = load i8, i8* %33, align 1
  store i8 %34, i8* %4, align 1
  %35 = load i32, i32* %6, align 4
  %36 = trunc i32 %35 to i8
  store i8 %36, i8* %5, align 1
  br label %37

37:                                               ; preds = %30, %21
  br label %38

38:                                               ; preds = %37
  %39 = load i32, i32* %6, align 4
  %40 = add nsw i32 %39, 1
  store i32 %40, i32* %6, align 4
  br label %17

41:                                               ; preds = %17
  store i32 0, i32* %6, align 4
  br label %42

42:                                               ; preds = %55, %41
  %43 = load i32, i32* %6, align 4
  %44 = load i8, i8* %5, align 1
  %45 = sext i8 %44 to i32
  %46 = icmp sle i32 %43, %45
  br i1 %46, label %47, label %58

47:                                               ; preds = %42
  %48 = load i32, i32* %6, align 4
  %49 = sext i32 %48 to i64
  %50 = getelementptr inbounds [10 x i8], [10 x i8]* %1, i64 0, i64 %49
  %51 = load i8, i8* %50, align 1
  %52 = load i32, i32* %6, align 4
  %53 = sext i32 %52 to i64
  %54 = getelementptr inbounds [13 x i8], [13 x i8]* %2, i64 0, i64 %53
  store i8 %51, i8* %54, align 1
  br label %55

55:                                               ; preds = %47
  %56 = load i32, i32* %6, align 4
  %57 = add nsw i32 %56, 1
  store i32 %57, i32* %6, align 4
  br label %42

58:                                               ; preds = %42
  %59 = load i8, i8* %5, align 1
  %60 = sext i8 %59 to i32
  %61 = add nsw i32 %60, 1
  store i32 %61, i32* %6, align 4
  br label %62

62:                                               ; preds = %80, %58
  %63 = load i32, i32* %6, align 4
  %64 = load i8, i8* %5, align 1
  %65 = sext i8 %64 to i32
  %66 = add nsw i32 %65, 3
  %67 = icmp sle i32 %63, %66
  br i1 %67, label %68, label %83

68:                                               ; preds = %62
  %69 = load i32, i32* %6, align 4
  %70 = load i8, i8* %5, align 1
  %71 = sext i8 %70 to i32
  %72 = sub nsw i32 %69, %71
  %73 = sub nsw i32 %72, 1
  %74 = sext i32 %73 to i64
  %75 = getelementptr inbounds [3 x i8], [3 x i8]* %3, i64 0, i64 %74
  %76 = load i8, i8* %75, align 1
  %77 = load i32, i32* %6, align 4
  %78 = sext i32 %77 to i64
  %79 = getelementptr inbounds [13 x i8], [13 x i8]* %2, i64 0, i64 %78
  store i8 %76, i8* %79, align 1
  br label %80

80:                                               ; preds = %68
  %81 = load i32, i32* %6, align 4
  %82 = add nsw i32 %81, 1
  store i32 %82, i32* %6, align 4
  br label %62

83:                                               ; preds = %62
  %84 = load i8, i8* %5, align 1
  %85 = sext i8 %84 to i32
  %86 = add nsw i32 %85, 4
  store i32 %86, i32* %6, align 4
  br label %87

87:                                               ; preds = %101, %83
  %88 = load i32, i32* %6, align 4
  %89 = load i32, i32* %7, align 4
  %90 = add nsw i32 %89, 3
  %91 = icmp slt i32 %88, %90
  br i1 %91, label %92, label %104

92:                                               ; preds = %87
  %93 = load i32, i32* %6, align 4
  %94 = sub nsw i32 %93, 3
  %95 = sext i32 %94 to i64
  %96 = getelementptr inbounds [10 x i8], [10 x i8]* %1, i64 0, i64 %95
  %97 = load i8, i8* %96, align 1
  %98 = load i32, i32* %6, align 4
  %99 = sext i32 %98 to i64
  %100 = getelementptr inbounds [13 x i8], [13 x i8]* %2, i64 0, i64 %99
  store i8 %97, i8* %100, align 1
  br label %101

101:                                              ; preds = %92
  %102 = load i32, i32* %6, align 4
  %103 = add nsw i32 %102, 1
  store i32 %103, i32* %6, align 4
  br label %87

104:                                              ; preds = %87
  %105 = load i32, i32* %7, align 4
  %106 = add nsw i32 %105, 3
  %107 = sext i32 %106 to i64
  %108 = getelementptr inbounds [13 x i8], [13 x i8]* %2, i64 0, i64 %107
  store i8 0, i8* %108, align 1
  %109 = getelementptr inbounds [13 x i8], [13 x i8]* %2, i64 0, i64 0
  %110 = call i32 (i8*, ...) @printf(i8* getelementptr inbounds ([4 x i8], [4 x i8]* @.str.1, i64 0, i64 0), i8* %109)
  br label %8

111:                                              ; preds = %8
  ret void
}

declare dso_local i32 @__isoc99_scanf(i8*, ...) #1

; Function Attrs: nounwind readonly
declare dso_local i64 @strlen(i8*) #2

declare dso_local i32 @printf(i8*, ...) #1


!llvm.module.flags = !{!0}
!llvm.ident = !{!1}

!0 = !{i32 1, !"wchar_size", i32 4}
!1 = !{!"clang version 10.0.0-4ubuntu1 "}
